; Function Attrs: nounwind uwtable
define i32 @ossl_quic_rstream_move_to_rbuf(ptr noundef %0) local_unnamed_addr #0 {
  %2 = getelementptr inbounds nuw i8, ptr %0, i64 88
  %3 = load i64, ptr %2, align 8, !tbaa !17
  %4 = getelementptr i8, ptr %0, i64 96
  %.val.i = load i64, ptr %4, align 8, !tbaa !18
  %5 = getelementptr i8, ptr %0, i64 104
  %.val2.i = load i64, ptr %5, align 8, !tbaa !19
  %.neg.i = sub i64 %3, %.val.i
  %6 = sub i64 0, %.val2.i
  %7 = icmp eq i64 %.neg.i, %6
  br i1 %7, label %11, label %8

8:                                                ; preds = %1
  %9 = getelementptr inbounds nuw i8, ptr %0, i64 80
  %10 = tail call i32 @ossl_sframe_list_move_data(ptr noundef nonnull %0, ptr noundef nonnull @write_at_ring_buf_cb, ptr noundef nonnull %9) #10
  br label %11

11:                                               ; preds = %1, %8
  %.0 = phi i32 [ %10, %8 ], [ 0, %1 ]
  ret i32 %.0
}